; Function Attrs: mustprogress nofree nounwind willreturn memory(write, argmem: none, inaccessiblemem: readwrite) uwtable
define noalias noundef ptr @SUNMemoryHelper_Wrap(ptr noundef readonly captures(none) %0, ptr noundef %1, i32 noundef %2) local_unnamed_addr #0 {
  %4 = tail call noalias noundef dereferenceable_or_null(24) ptr @malloc(i64 noundef 24) #9
  %5 = getelementptr inbounds nuw i8, ptr %4, i64 16
  store i64 0, ptr %5, align 8, !tbaa !3
  store ptr %1, ptr %4, align 8, !tbaa !20
  %6 = getelementptr inbounds nuw i8, ptr %4, i64 12
  store i32 0, ptr %6, align 4, !tbaa !22
  %7 = getelementptr inbounds nuw i8, ptr %4, i64 8
  store i32 %2, ptr %7, align 8, !tbaa !21
  ret ptr %4
}